Certificate:
    Data:
        Version: 3 (0x2)
        Serial Number: 2 (0x2)
    Signature Algorithm: sha256WithRSAEncryption
        Issuer: CN=192.168.127.100@1457904946
        Validity
            Not Before: Mar 13 21:35:47 2016 GMT
            Not After : Mar 11 21:35:47 2026 GMT
        Subject: CN=kubecfg
        Subject Public Key Info:
            Public Key Algorithm: rsaEncryption
                Public-Key: (2048 bit)
                Modulus:
                    00:95:b9:89:f0:f6:fc:f5:42:10:b7:a8:30:60:db:
                    e6:d5:fc:2b:e3:78:eb:f5:c0:50:02:8e:b2:2c:aa:
                    c3:5a:25:3d:04:3c:90:ca:f8:8e:b7:5f:4f:18:77:
                    0d:90:f6:a6:69:4a:0c:9b:87:e8:fc:80:dd:33:da:
                    88:8c:07:97:9d:cc:b7:cb:dd:e6:2e:83:5a:ea:53:
                    f8:5b:70:a3:bf:35:7e:e2:f3:e7:57:a6:21:46:80:
                    00:b6:17:eb:ff:42:8e:6b:1c:b0:cd:fa:e8:f6:b8:
                    52:6f:0b:ef:bd:18:ef:7a:43:66:9b:20:ba:18:25:
                    be:69:b8:25:b3:5f:c7:bd:20:5c:92:6b:3e:89:7e:
                    c1:17:a4:66:dd:d1:d4:9b:38:21:90:34:a3:91:67:
                    e8:45:0d:eb:d1:aa:76:97:95:c7:df:eb:23:a0:97:
                    5f:d4:d5:f9:34:0d:79:cb:80:1f:69:c4:0e:b2:d5:
                    09:ea:3f:25:97:8f:9a:15:5b:27:39:b6:df:2c:9d:
                    31:78:52:8a:36:16:4e:c6:c9:c9:0f:8a:43:a4:80:
                    2d:43:e1:5b:b9:19:9d:4f:a2:18:1f:e3:c0:56:3e:
                    ad:f9:22:ae:65:cb:b4:9b:ba:a6:75:6f:1c:57:6a:
                    d8:a3:17:13:98:e7:49:ad:f2:16:16:52:59:f9:c8:
                    01:4d
                Exponent: 65537 (0x10001)
        X509v3 extensions:
            X509v3 Basic Constraints: 
                CA:FALSE
            X509v3 Subject Key Identifier: 
                EB:CA:E1:1C:C4:1D:09:C7:5C:24:A6:F6:97:10:5B:E9:CB:01:B0:3B
            X509v3 Authority Key Identifier: 
                keyid:5C:C2:A7:90:98:07:25:B3:90:0F:EC:47:AD:E0:C2:A8:4D:08:39:F2
                DirName:/CN=192.168.127.100@1457904946
                serial:9A:5A:51:03:FB:CA:7B:09

            X509v3 Extended Key Usage: 
                TLS Web Client Authentication
            X509v3 Key Usage: 
                Digital Signature
    Signature Algorithm: sha256WithRSAEncryption
         15:49:9b:04:1e:8d:36:50:b1:de:5c:c6:98:d5:06:95:4b:29:
         ef:0e:0d:9e:2a:a1:46:58:3d:76:a6:d2:ed:6f:3d:fe:34:a5:
         cf:a7:9e:e2:8a:69:6e:3b:36:da:4f:5c:41:29:51:d6:38:0e:
         59:ed:e3:c7:13:cd:6a:b7:43:2f:8e:9a:ab:98:4f:2c:af:66:
         98:33:ac:19:5c:72:66:10:b9:76:7b:90:26:6e:79:74:03:db:
         38:8c:fc:21:df:1e:b2:7c:82:13:55:b5:86:91:cd:de:dd:1b:
         86:85:aa:e4:cf:28:b0:84:37:56:c0:88:46:2f:5f:69:48:b7:
         08:25:0c:6a:54:d5:a4:f7:c7:28:df:85:39:bc:cb:68:b0:65:
         e9:1d:35:50:d2:3f:d0:cd:86:d5:be:8c:47:83:41:a0:60:38:
         16:99:5b:0c:98:72:3c:d1:5a:fd:30:45:d8:f3:c6:69:0a:3f:
         90:24:ea:6f:67:44:90:e9:1c:3c:37:3c:5d:c7:41:24:0c:76:
         57:68:c0:16:f9:ec:5f:85:60:a6:1b:53:40:8b:3a:f4:15:b4:
         2a:35:f5:16:97:f0:fc:71:73:99:59:24:0c:f0:47:ad:cc:4b:
         d7:71:06:eb:90:87:43:b5:f4:bd:16:6d:78:e3:cd:7a:5b:38:
         f4:e3:f7:ff
-----BEGIN CERTIFICATE-----
MIIDWTCCAkGgAwIBAgIBAjANBgkqhkiG9w0BAQsFADAlMSMwIQYDVQQDFBoxOTIu
MTY4LjEyNy4xMDBAMTQ1NzkwNDk0NjAeFw0xNjAzMTMyMTM1NDdaFw0yNjAzMTEy
MTM1NDdaMBIxEDAOBgNVBAMTB2t1YmVjZmcwggEiMA0GCSqGSIb3DQEBAQUAA4IB
DwAwggEKAoIBAQCVuYnw9vz1QhC3qDBg2+bV/CvjeOv1wFACjrIsqsNaJT0EPJDK
+I63X08Ydw2Q9qZpSgybh+j8gN0z2oiMB5edzLfL3eYug1rqU/hbcKO/NX7i8+dX
piFGgAC2F+v/Qo5rHLDN+uj2uFJvC++9GO96Q2abILoYJb5puCWzX8e9IFySaz6J
fsEXpGbd0dSbOCGQNKORZ+hFDevRqnaXlcff6yOgl1/U1fk0DXnLgB9pxA6y1Qnq
PyWXj5oVWyc5tt8snTF4Uoo2Fk7GyckPikOkgC1D4Vu5GZ1Pohgf48BWPq35Iq5l
y7SbuqZ1bxxXatijFxOY50mt8hYWUln5yAFNAgMBAAGjgaYwgaMwCQYDVR0TBAIw
ADAdBgNVHQ4EFgQU68rhHMQdCcdcJKb2lxBb6csBsDswVQYDVR0jBE4wTIAUXMKn
kJgHJbOQD+xHreDCqE0IOfKhKaQnMCUxIzAhBgNVBAMUGjE5Mi4xNjguMTI3LjEw
MEAxNDU3OTA0OTQ2ggkAmlpRA/vKewkwEwYDVR0lBAwwCgYIKwYBBQUHAwIwCwYD
VR0PBAQDAgeAMA0GCSqGSIb3DQEBCwUAA4IBAQAVSZsEHo02ULHeXMaY1QaVSynv
Dg2eKqFGWD12ptLtbz3+NKXPp57iimluOzbaT1xBKVHWOA5Z7ePHE81qt0Mvjpqr
mE8sr2aYM6wZXHJmELl2e5Ambnl0A9s4jPwh3x6yfIITVbWGkc3e3RuGharkzyiw
hDdWwIhGL19pSLcIJQxqVNWk98co34U5vMtosGXpHTVQ0j/QzYbVvoxHg0GgYDgW
mVsMmHI80Vr9MEXY88ZpCj+QJOpvZ0SQ6Rw8Nzxdx0EkDHZXaMAW+exfhWCmG1NA
izr0FbQqNfUWl/D8cXOZWSQM8EetzEvXcQbrkIdDtfS9Fm144816Wzj04/f/
-----END CERTIFICATE-----
